; Function Attrs: cold nounwind optsize uwtable
define internal i32 @vaapi_encode_mjpeg_close(ptr noundef %0) #0 {
  %2 = getelementptr inbounds nuw i8, ptr %0, i64 32
  %3 = load ptr, ptr %2, align 8, !tbaa !4
  %4 = getelementptr inbounds nuw i8, ptr %3, i64 6584
  tail call void @ff_cbs_fragment_free(ptr noundef nonnull %4) #9
  %5 = getelementptr inbounds nuw i8, ptr %3, i64 6576
  tail call void @ff_cbs_close(ptr noundef nonnull %5) #9
  %6 = tail call i32 @ff_vaapi_encode_close(ptr noundef %0) #9
  ret i32 %6
}